; Function Attrs: mustprogress nofree norecurse nosync nounwind willreturn memory(none) uwtable
define hidden noundef i32 @_ZN4cvc58internal6theory11quantifiers11mkNegateCTTENS2_11CegTermTypeE(i32 noundef %0) local_unnamed_addr #3 {
  %switch.tableidx = add i32 %0, -2
  %2 = icmp ult i32 %switch.tableidx, 4
  br i1 %2, label %switch.lookup, label %4

switch.lookup:                                    ; preds = %1
  %3 = zext nneg i32 %switch.tableidx to i64
  %switch.gep = getelementptr inbounds nuw [4 x i32], ptr @switch.table._ZN4cvc58internal6theory11quantifiers11mkNegateCTTENS2_11CegTermTypeE, i64 0, i64 %3
  %switch.load = load i32, ptr %switch.gep, align 4
  br label %4

4:                                                ; preds = %1, %switch.lookup
  %.0 = phi i32 [ %switch.load, %switch.lookup ], [ %0, %1 ]
  ret i32 %.0
}